target datalayout = "e-m:e-p270:32:32-p271:32:32-p272:64:64-i64:64-i128:128-f80:128-n8:16:32:64-S128"
target triple = "x86_64-pc-linux-gnu"

%struct._lv_lru_t = type { ptr, i64, i64, i64, i64, i64, i32, ptr, ptr, ptr }
%struct._lv_lru_item_t = type { ptr, ptr, i64, i64, i64, ptr }

; Function Attrs: inlinehint nounwind uwtable
define internal void @lv_memzero(ptr noundef %0, i64 noundef %1) #3 {
  %3 = alloca ptr, align 8
  %4 = alloca i64, align 8
  store ptr %0, ptr %3, align 8, !tbaa !7
  store i64 %1, ptr %4, align 8, !tbaa !3
  %5 = load ptr, ptr %3, align 8, !tbaa !7
  %6 = load i64, ptr %4, align 8, !tbaa !3
  call void @lv_memset(ptr noundef %5, i8 noundef zeroext 0, i64 noundef %6)
  ret void
}

; Function Attrs: nounwind uwtable
define internal void @lv_lru_remove_item(ptr noundef %0, ptr noundef %1, ptr noundef %2, i32 noundef %3) #0 {
  %5 = alloca ptr, align 8
  %6 = alloca ptr, align 8
  %7 = alloca ptr, align 8
  %8 = alloca i32, align 4
  store ptr %0, ptr %5, align 8, !tbaa !7
  store ptr %1, ptr %6, align 8, !tbaa !7
  store ptr %2, ptr %7, align 8, !tbaa !7
  store i32 %3, ptr %8, align 4, !tbaa !19
  %9 = load ptr, ptr %6, align 8, !tbaa !7
  %10 = icmp ne ptr %9, null
  br i1 %10, label %11, label %17

11:                                               ; preds = %4
  %12 = load ptr, ptr %7, align 8, !tbaa !7
  %13 = getelementptr inbounds nuw %struct._lv_lru_item_t, ptr %12, i32 0, i32 5
  %14 = load ptr, ptr %13, align 8, !tbaa !20
  %15 = load ptr, ptr %6, align 8, !tbaa !7
  %16 = getelementptr inbounds nuw %struct._lv_lru_item_t, ptr %15, i32 0, i32 5
  store ptr %14, ptr %16, align 8, !tbaa !20
  br label %27

17:                                               ; preds = %4
  %18 = load ptr, ptr %7, align 8, !tbaa !7
  %19 = getelementptr inbounds nuw %struct._lv_lru_item_t, ptr %18, i32 0, i32 5
  %20 = load ptr, ptr %19, align 8, !tbaa !20
  %21 = load ptr, ptr %5, align 8, !tbaa !7
  %22 = getelementptr inbounds nuw %struct._lv_lru_t, ptr %21, i32 0, i32 0
  %23 = load ptr, ptr %22, align 8, !tbaa !18
  %24 = load i32, ptr %8, align 4, !tbaa !19
  %25 = zext i32 %24 to i64
  %26 = getelementptr inbounds nuw ptr, ptr %23, i64 %25
  store ptr %20, ptr %26, align 8, !tbaa !7
  br label %27

27:                                               ; preds = %17, %11
  %28 = load ptr, ptr %7, align 8, !tbaa !7
  %29 = getelementptr inbounds nuw %struct._lv_lru_item_t, ptr %28, i32 0, i32 2
  %30 = load i64, ptr %29, align 8, !tbaa !24
  %31 = load ptr, ptr %5, align 8, !tbaa !7
  %32 = getelementptr inbounds nuw %struct._lv_lru_t, ptr %31, i32 0, i32 2
  %33 = load i64, ptr %32, align 8, !tbaa !13
  %34 = add i64 %33, %30
  store i64 %34, ptr %32, align 8, !tbaa !13
  %35 = load ptr, ptr %5, align 8, !tbaa !7
  %36 = getelementptr inbounds nuw %struct._lv_lru_t, ptr %35, i32 0, i32 7
  %37 = load ptr, ptr %36, align 8, !tbaa !16
  %38 = load ptr, ptr %7, align 8, !tbaa !7
  %39 = getelementptr inbounds nuw %struct._lv_lru_item_t, ptr %38, i32 0, i32 0
  %40 = load ptr, ptr %39, align 8, !tbaa !22
  call void %37(ptr noundef %40)
  %41 = load ptr, ptr %5, align 8, !tbaa !7
  %42 = getelementptr inbounds nuw %struct._lv_lru_t, ptr %41, i32 0, i32 8
  %43 = load ptr, ptr %42, align 8, !tbaa !17
  %44 = load ptr, ptr %7, align 8, !tbaa !7
  %45 = getelementptr inbounds nuw %struct._lv_lru_item_t, ptr %44, i32 0, i32 1
  %46 = load ptr, ptr %45, align 8, !tbaa !23
  call void %43(ptr noundef %46)
  %47 = load ptr, ptr %7, align 8, !tbaa !7
  call void @lv_memzero(ptr noundef %47, i64 noundef 48)
  %48 = load ptr, ptr %5, align 8, !tbaa !7
  %49 = getelementptr inbounds nuw %struct._lv_lru_t, ptr %48, i32 0, i32 9
  %50 = load ptr, ptr %49, align 8, !tbaa !28
  %51 = load ptr, ptr %7, align 8, !tbaa !7
  %52 = getelementptr inbounds nuw %struct._lv_lru_item_t, ptr %51, i32 0, i32 5
  store ptr %50, ptr %52, align 8, !tbaa !20
  %53 = load ptr, ptr %7, align 8, !tbaa !7
  %54 = load ptr, ptr %5, align 8, !tbaa !7
  %55 = getelementptr inbounds nuw %struct._lv_lru_t, ptr %54, i32 0, i32 9
  store ptr %53, ptr %55, align 8, !tbaa !28
  ret void
}

; Function Attrs: nounwind uwtable
define void @lv_lru_remove_lru_item(ptr noundef %0) #0 {
  %2 = alloca ptr, align 8
  %3 = alloca ptr, align 8
  %4 = alloca ptr, align 8
  %5 = alloca ptr, align 8
  %6 = alloca ptr, align 8
  %7 = alloca i32, align 4
  %8 = alloca i32, align 4
  %9 = alloca i64, align 8
  store ptr %0, ptr %2, align 8, !tbaa !7
  call void @llvm.lifetime.start.p0(i64 8, ptr %3) #4
  store ptr null, ptr %3, align 8, !tbaa !7
  call void @llvm.lifetime.start.p0(i64 8, ptr %4) #4
  store ptr null, ptr %4, align 8, !tbaa !7
  call void @llvm.lifetime.start.p0(i64 8, ptr %5) #4
  store ptr null, ptr %5, align 8, !tbaa !7
  call void @llvm.lifetime.start.p0(i64 8, ptr %6) #4
  store ptr null, ptr %6, align 8, !tbaa !7
  call void @llvm.lifetime.start.p0(i64 4, ptr %7) #4
  store i32 0, ptr %7, align 4, !tbaa !19
  call void @llvm.lifetime.start.p0(i64 4, ptr %8) #4
  store i32 -1, ptr %8, align 4, !tbaa !19
  call void @llvm.lifetime.start.p0(i64 8, ptr %9) #4
  store i64 -1, ptr %9, align 8, !tbaa !3
  br label %10

10:                                               ; preds = %50, %1
  %11 = load i32, ptr %7, align 4, !tbaa !19
  %12 = zext i32 %11 to i64
  %13 = load ptr, ptr %2, align 8, !tbaa !7
  %14 = getelementptr inbounds nuw %struct._lv_lru_t, ptr %13, i32 0, i32 5
  %15 = load i64, ptr %14, align 8, !tbaa !9
  %16 = icmp ult i64 %12, %15
  br i1 %16, label %17, label %53

17:                                               ; preds = %10
  %18 = load ptr, ptr %2, align 8, !tbaa !7
  %19 = getelementptr inbounds nuw %struct._lv_lru_t, ptr %18, i32 0, i32 0
  %20 = load ptr, ptr %19, align 8, !tbaa !18
  %21 = load i32, ptr %7, align 4, !tbaa !19
  %22 = zext i32 %21 to i64
  %23 = getelementptr inbounds nuw ptr, ptr %20, i64 %22
  %24 = load ptr, ptr %23, align 8, !tbaa !7
  store ptr %24, ptr %5, align 8, !tbaa !7
  store ptr null, ptr %6, align 8, !tbaa !7
  br label %25

25:                                               ; preds = %44, %17
  %26 = load ptr, ptr %5, align 8, !tbaa !7
  %27 = icmp ne ptr %26, null
  br i1 %27, label %28, label %49

28:                                               ; preds = %25
  %29 = load ptr, ptr %5, align 8, !tbaa !7
  %30 = getelementptr inbounds nuw %struct._lv_lru_item_t, ptr %29, i32 0, i32 4
  %31 = load i64, ptr %30, align 8, !tbaa !33
  %32 = load i64, ptr %9, align 8, !tbaa !3
  %33 = icmp ult i64 %31, %32
  br i1 %33, label %37, label %34

34:                                               ; preds = %28
  %35 = load i64, ptr %9, align 8, !tbaa !3
  %36 = icmp eq i64 %35, -1
  br i1 %36, label %37, label %44

37:                                               ; preds = %34, %28
  %38 = load ptr, ptr %5, align 8, !tbaa !7
  %39 = getelementptr inbounds nuw %struct._lv_lru_item_t, ptr %38, i32 0, i32 4
  %40 = load i64, ptr %39, align 8, !tbaa !33
  store i64 %40, ptr %9, align 8, !tbaa !3
  %41 = load ptr, ptr %5, align 8, !tbaa !7
  store ptr %41, ptr %3, align 8, !tbaa !7
  %42 = load ptr, ptr %6, align 8, !tbaa !7
  store ptr %42, ptr %4, align 8, !tbaa !7
  %43 = load i32, ptr %7, align 4, !tbaa !19
  store i32 %43, ptr %8, align 4, !tbaa !19
  br label %44

44:                                               ; preds = %37, %34
  %45 = load ptr, ptr %5, align 8, !tbaa !7
  store ptr %45, ptr %6, align 8, !tbaa !7
  %46 = load ptr, ptr %5, align 8, !tbaa !7
  %47 = getelementptr inbounds nuw %struct._lv_lru_item_t, ptr %46, i32 0, i32 5
  %48 = load ptr, ptr %47, align 8, !tbaa !20
  store ptr %48, ptr %5, align 8, !tbaa !7
  br label %25, !llvm.loop !37

49:                                               ; preds = %25
  br label %50

50:                                               ; preds = %49
  %51 = load i32, ptr %7, align 4, !tbaa !19
  %52 = add i32 %51, 1
  store i32 %52, ptr %7, align 4, !tbaa !19
  br label %10, !llvm.loop !38

53:                                               ; preds = %10
  %54 = load ptr, ptr %3, align 8, !tbaa !7
  %55 = icmp ne ptr %54, null
  br i1 %55, label %56, label %61

56:                                               ; preds = %53
  %57 = load ptr, ptr %2, align 8, !tbaa !7
  %58 = load ptr, ptr %4, align 8, !tbaa !7
  %59 = load ptr, ptr %3, align 8, !tbaa !7
  %60 = load i32, ptr %8, align 4, !tbaa !19
  call void @lv_lru_remove_item(ptr noundef %57, ptr noundef %58, ptr noundef %59, i32 noundef %60)
  br label %61

61:                                               ; preds = %56, %53
  call void @llvm.lifetime.end.p0(i64 8, ptr %9) #4
  call void @llvm.lifetime.end.p0(i64 4, ptr %8) #4
  call void @llvm.lifetime.end.p0(i64 4, ptr %7) #4
  call void @llvm.lifetime.end.p0(i64 8, ptr %6) #4
  call void @llvm.lifetime.end.p0(i64 8, ptr %5) #4
  call void @llvm.lifetime.end.p0(i64 8, ptr %4) #4
  call void @llvm.lifetime.end.p0(i64 8, ptr %3) #4
  ret void
}