; Function Attrs: nounwind uwtable
define void @lv_lru_remove_lru_item(ptr nocapture noundef %0) local_unnamed_addr #0 {
  %2 = getelementptr inbounds nuw i8, ptr %0, i64 40
  %3 = load i64, ptr %2, align 8, !tbaa !3
  %.not56 = icmp eq i64 %3, 0
  br i1 %.not56, label %._crit_edge52.thread, label %.lr.ph51

.lr.ph51:                                         ; preds = %1
  %4 = load ptr, ptr %0, align 8, !tbaa !16
  br label %5

5:                                                ; preds = %.lr.ph51, %._crit_edge
  %6 = phi i64 [ 0, %.lr.ph51 ], [ %16, %._crit_edge ]
  %.049 = phi i64 [ -1, %.lr.ph51 ], [ %.1.lcssa, %._crit_edge ]
  %.02048 = phi i32 [ -1, %.lr.ph51 ], [ %.121.lcssa, %._crit_edge ]
  %.02347 = phi i32 [ 0, %.lr.ph51 ], [ %15, %._crit_edge ]
  %.02646 = phi ptr [ null, %.lr.ph51 ], [ %.127.lcssa, %._crit_edge ]
  %.02945 = phi ptr [ null, %.lr.ph51 ], [ %.130.lcssa, %._crit_edge ]
  %7 = getelementptr inbounds nuw ptr, ptr %4, i64 %6
  %.02534 = load ptr, ptr %7, align 8, !tbaa !17
  %.not3335 = icmp eq ptr %.02534, null
  br i1 %.not3335, label %._crit_edge, label %.lr.ph

.lr.ph:                                           ; preds = %5, %13
  %.02541 = phi ptr [ %.025, %13 ], [ %.02534, %5 ]
  %.140 = phi i64 [ %.2, %13 ], [ %.049, %5 ]
  %.12139 = phi i32 [ %.222, %13 ], [ %.02048, %5 ]
  %.02438 = phi ptr [ %.02541, %13 ], [ null, %5 ]
  %.12737 = phi ptr [ %.228, %13 ], [ %.02646, %5 ]
  %.13036 = phi ptr [ %.231, %13 ], [ %.02945, %5 ]
  %8 = getelementptr inbounds nuw i8, ptr %.02541, i64 32
  %9 = load i64, ptr %8, align 8, !tbaa !34
  %10 = icmp ult i64 %9, %.140
  %11 = icmp eq i64 %.140, -1
  %or.cond = or i1 %11, %10
  br i1 %or.cond, label %12, label %13

12:                                               ; preds = %.lr.ph
  br label %13

13:                                               ; preds = %.lr.ph, %12
  %.231 = phi ptr [ %.02541, %12 ], [ %.13036, %.lr.ph ]
  %.228 = phi ptr [ %.02438, %12 ], [ %.12737, %.lr.ph ]
  %.222 = phi i32 [ %.02347, %12 ], [ %.12139, %.lr.ph ]
  %.2 = phi i64 [ %9, %12 ], [ %.140, %.lr.ph ]
  %14 = getelementptr inbounds nuw i8, ptr %.02541, i64 40
  %.025 = load ptr, ptr %14, align 8, !tbaa !17
  %.not33 = icmp eq ptr %.025, null
  br i1 %.not33, label %._crit_edge, label %.lr.ph, !llvm.loop !35

._crit_edge:                                      ; preds = %13, %5
  %.130.lcssa = phi ptr [ %.02945, %5 ], [ %.231, %13 ]
  %.127.lcssa = phi ptr [ %.02646, %5 ], [ %.228, %13 ]
  %.121.lcssa = phi i32 [ %.02048, %5 ], [ %.222, %13 ]
  %.1.lcssa = phi i64 [ %.049, %5 ], [ %.2, %13 ]
  %15 = add i32 %.02347, 1
  %16 = zext i32 %15 to i64
  %17 = icmp ugt i64 %3, %16
  br i1 %17, label %5, label %._crit_edge52, !llvm.loop !36

._crit_edge52:                                    ; preds = %._crit_edge
  %18 = zext i32 %.121.lcssa to i64
  %.not = icmp eq ptr %.130.lcssa, null
  br i1 %.not, label %._crit_edge52.thread, label %19

19:                                               ; preds = %._crit_edge52
  %.not.i = icmp eq ptr %.127.lcssa, null
  %20 = getelementptr inbounds nuw i8, ptr %.130.lcssa, i64 40
  %21 = load ptr, ptr %20, align 8, !tbaa !18
  br i1 %.not.i, label %24, label %22

22:                                               ; preds = %19
  %23 = getelementptr inbounds nuw i8, ptr %.127.lcssa, i64 40
  store ptr %21, ptr %23, align 8, !tbaa !18
  br label %lv_lru_remove_item.exit

24:                                               ; preds = %19
  %25 = load ptr, ptr %0, align 8, !tbaa !16
  %26 = getelementptr inbounds nuw ptr, ptr %25, i64 %18
  store ptr %21, ptr %26, align 8, !tbaa !17
  br label %lv_lru_remove_item.exit

lv_lru_remove_item.exit:                          ; preds = %22, %24
  %27 = getelementptr inbounds nuw i8, ptr %.130.lcssa, i64 16
  %28 = load i64, ptr %27, align 8, !tbaa !22
  %29 = getelementptr inbounds nuw i8, ptr %0, i64 16
  %30 = load i64, ptr %29, align 8, !tbaa !11
  %31 = add i64 %30, %28
  store i64 %31, ptr %29, align 8, !tbaa !11
  %32 = getelementptr inbounds nuw i8, ptr %0, i64 56
  %33 = load ptr, ptr %32, align 8, !tbaa !14
  %34 = load ptr, ptr %.130.lcssa, align 8, !tbaa !20
  tail call void %33(ptr noundef %34) #2
  %35 = getelementptr inbounds nuw i8, ptr %0, i64 64
  %36 = load ptr, ptr %35, align 8, !tbaa !15
  %37 = getelementptr inbounds nuw i8, ptr %.130.lcssa, i64 8
  %38 = load ptr, ptr %37, align 8, !tbaa !21
  tail call void %36(ptr noundef %38) #2
  tail call void @lv_memset(ptr noundef nonnull %.130.lcssa, i8 noundef zeroext 0, i64 noundef 48) #2
  %39 = getelementptr inbounds nuw i8, ptr %0, i64 72
  %40 = load ptr, ptr %39, align 8, !tbaa !26
  store ptr %40, ptr %20, align 8, !tbaa !18
  store ptr %.130.lcssa, ptr %39, align 8, !tbaa !26
  br label %._crit_edge52.thread

._crit_edge52.thread:                             ; preds = %1, %lv_lru_remove_item.exit, %._crit_edge52
  ret void
}